target datalayout = "e-m:e-p270:32:32-p271:32:32-p272:64:64-i64:64-i128:128-f80:128-n8:16:32:64-S128"
target triple = "x86_64-pc-linux-gnu"

%"struct.google::protobuf::internal::ParseTable" = type { ptr, ptr, i32, i64, i64, i64, i64, ptr, i8 }
%"class.google::protobuf::internal::LogMessage" = type { i32, ptr, i32, %"class.std::__cxx11::basic_string" }
%"class.std::__cxx11::basic_string" = type { %"struct.std::__cxx11::basic_string<char>::_Alloc_hider", i64, %union.anon }
%"struct.std::__cxx11::basic_string<char>::_Alloc_hider" = type { ptr }
%union.anon = type { i64, [8 x i8] }
%"class.google::protobuf::internal::LogFinisher" = type { i8 }
%"class.google::protobuf::io::StringOutputStream" = type { %"class.google::protobuf::io::ZeroCopyOutputStream", ptr }
%"class.google::protobuf::io::ZeroCopyOutputStream" = type { ptr }
%"class.google::protobuf::io::CodedOutputStream" = type { %"class.google::protobuf::io::EpsCopyOutputStream", ptr, i64 }
%"class.google::protobuf::io::EpsCopyOutputStream" = type <{ ptr, ptr, [32 x i8], ptr, i8, i8, i8, [5 x i8] }>
%"class.google::protobuf::internal::InternalMetadata" = type { ptr }
%"struct.google::protobuf::internal::InternalMetadata::Container" = type { %"struct.google::protobuf::internal::InternalMetadata::ContainerBase", %"class.std::__cxx11::basic_string" }
%"struct.google::protobuf::internal::InternalMetadata::ContainerBase" = type { ptr }

@.str.8 = private unnamed_addr constant [65 x i8] c"third_party/protobuf-lite/generated_message_table_driven_lite.cc\00", align 1
@.str.9 = private unnamed_addr constant [41 x i8] c"CHECK failed: !table.unknown_field_set: \00", align 1

; Function Attrs: alwaysinline mustprogress nounwind uwtable
define linkonce_odr noundef i32 @_ZNK6google8protobuf8internal16InternalMetadata6PtrTagEv(ptr noundef nonnull align 8 dereferenceable(8) %0) #13 comdat align 2 {
  %2 = alloca ptr, align 8
  store ptr %0, ptr %2, align 8, !tbaa !165
  %3 = load ptr, ptr %2, align 8
  %4 = getelementptr inbounds nuw %"class.google::protobuf::internal::InternalMetadata", ptr %3, i32 0, i32 0
  %5 = load ptr, ptr %4, align 8, !tbaa !167
  %6 = ptrtoint ptr %5 to i64
  %7 = and i64 %6, 1
  %8 = trunc i64 %7 to i32
  ret i32 %8
}

; Function Attrs: mustprogress nounwind uwtable
define linkonce_odr noundef ptr @_ZNK6google8protobuf8internal16InternalMetadata8PtrValueINS2_9ContainerINSt7__cxx1112basic_stringIcSt11char_traitsIcESaIcEEEEEEEPT_v(ptr noundef nonnull align 8 dereferenceable(8) %0) #10 comdat align 2 {
  %2 = alloca ptr, align 8
  store ptr %0, ptr %2, align 8, !tbaa !165
  %3 = load ptr, ptr %2, align 8
  %4 = getelementptr inbounds nuw %"class.google::protobuf::internal::InternalMetadata", ptr %3, i32 0, i32 0
  %5 = load ptr, ptr %4, align 8, !tbaa !167
  %6 = ptrtoint ptr %5 to i64
  %7 = and i64 %6, -2
  %8 = inttoptr i64 %7 to ptr
  ret ptr %8
}

; Function Attrs: alwaysinline mustprogress uwtable
define linkonce_odr noundef zeroext i1 @_ZNK6google8protobuf8internal16InternalMetadata19have_unknown_fieldsEv(ptr noundef nonnull align 8 dereferenceable(8) %0) #7 comdat align 2 {
  %2 = alloca ptr, align 8
  store ptr %0, ptr %2, align 8, !tbaa !165
  %3 = load ptr, ptr %2, align 8
  %4 = call noundef i32 @_ZNK6google8protobuf8internal16InternalMetadata6PtrTagEv(ptr noundef nonnull align 8 dereferenceable(8) %3)
  %5 = icmp eq i32 %4, 1
  ret i1 %5
}

; Function Attrs: alwaysinline mustprogress uwtable
define linkonce_odr noundef ptr @_ZN6google8protobuf8internal16InternalMetadata22mutable_unknown_fieldsINSt7__cxx1112basic_stringIcSt11char_traitsIcESaIcEEEEEPT_v(ptr noundef nonnull align 8 dereferenceable(8) %0) #7 comdat align 2 {
  %2 = alloca ptr, align 8
  %3 = alloca ptr, align 8
  store ptr %0, ptr %3, align 8, !tbaa !165
  %4 = load ptr, ptr %3, align 8
  %5 = call noundef zeroext i1 @_ZNK6google8protobuf8internal16InternalMetadata19have_unknown_fieldsEv(ptr noundef nonnull align 8 dereferenceable(8) %4)
  %6 = xor i1 %5, true
  %7 = xor i1 %6, true
  %8 = zext i1 %7 to i64
  %9 = call i64 @llvm.expect.i64(i64 %8, i64 1)
  %10 = icmp ne i64 %9, 0
  br i1 %10, label %11, label %14

11:                                               ; preds = %1
  %12 = call noundef ptr @_ZNK6google8protobuf8internal16InternalMetadata8PtrValueINS2_9ContainerINSt7__cxx1112basic_stringIcSt11char_traitsIcESaIcEEEEEEEPT_v(ptr noundef nonnull align 8 dereferenceable(8) %4)
  %13 = getelementptr inbounds nuw %"struct.google::protobuf::internal::InternalMetadata::Container", ptr %12, i32 0, i32 1
  store ptr %13, ptr %2, align 8
  br label %16

14:                                               ; preds = %1
  %15 = call noundef ptr @_ZN6google8protobuf8internal16InternalMetadata27mutable_unknown_fields_slowINSt7__cxx1112basic_stringIcSt11char_traitsIcESaIcEEEEEPT_v(ptr noundef nonnull align 8 dereferenceable(8) %4)
  store ptr %15, ptr %2, align 8
  br label %16

16:                                               ; preds = %14, %11
  %17 = load ptr, ptr %2, align 8
  ret ptr %17
}

; Function Attrs: inlinehint mustprogress nounwind uwtable
define linkonce_odr noundef ptr @_ZN6google8protobuf8internal3RawINS1_16InternalMetadataEEEPT_PNS0_11MessageLiteEl(ptr noundef %0, i64 noundef %1) #6 comdat {
  %3 = alloca ptr, align 8
  %4 = alloca i64, align 8
  store ptr %0, ptr %3, align 8, !tbaa !3
  store i64 %1, ptr %4, align 8, !tbaa !35
  %5 = load ptr, ptr %3, align 8, !tbaa !3
  %6 = load i64, ptr %4, align 8, !tbaa !35
  %7 = getelementptr inbounds i8, ptr %5, i64 %6
  ret ptr %7
}

; Function Attrs: inlinehint mustprogress nounwind uwtable
define linkonce_odr noundef ptr @_ZN6google8protobuf8internal3RawINS1_12ExtensionSetEEEPT_PNS0_11MessageLiteEl(ptr noundef %0, i64 noundef %1) #6 comdat {
  %3 = alloca ptr, align 8
  %4 = alloca i64, align 8
  store ptr %0, ptr %3, align 8, !tbaa !3
  store i64 %1, ptr %4, align 8, !tbaa !35
  %5 = load ptr, ptr %3, align 8, !tbaa !3
  %6 = load i64, ptr %4, align 8, !tbaa !35
  %7 = getelementptr inbounds i8, ptr %5, i64 %6
  ret ptr %7
}

; Function Attrs: mustprogress nounwind uwtable
define linkonce_odr void @_ZN6google8protobuf2io20ZeroCopyOutputStreamD2Ev(ptr noundef nonnull align 8 dereferenceable(8) %0) unnamed_addr #10 comdat align 2 {
  %2 = alloca ptr, align 8
  store ptr %0, ptr %2, align 8, !tbaa !163
  ret void
}

; Function Attrs: mustprogress uwtable
define internal noundef ptr @_ZN6google8protobuf8internal12_GLOBAL__N_120MutableUnknownFieldsB5cxx11EPNS0_11MessageLiteEl(ptr noundef %0, i64 noundef %1) #4 {
  %3 = alloca ptr, align 8
  %4 = alloca i64, align 8
  store ptr %0, ptr %3, align 8, !tbaa !3
  store i64 %1, ptr %4, align 8, !tbaa !35
  %5 = load ptr, ptr %3, align 8, !tbaa !3
  %6 = load i64, ptr %4, align 8, !tbaa !35
  %7 = call noundef ptr @_ZN6google8protobuf8internal3RawINS1_16InternalMetadataEEEPT_PNS0_11MessageLiteEl(ptr noundef %5, i64 noundef %6)
  %8 = call noundef ptr @_ZN6google8protobuf8internal16InternalMetadata22mutable_unknown_fieldsINSt7__cxx1112basic_stringIcSt11char_traitsIcESaIcEEEEEPT_v(ptr noundef nonnull align 8 dereferenceable(8) %7)
  ret ptr %8
}

; Function Attrs: mustprogress nounwind uwtable
define linkonce_odr noundef ptr @_ZNK6google8protobuf8internal10ParseTable16default_instanceEv(ptr noundef nonnull align 8 dereferenceable(72) %0) #10 comdat align 2 {
  %2 = alloca ptr, align 8
  store ptr %0, ptr %2, align 8, !tbaa !8
  %3 = load ptr, ptr %2, align 8
  %4 = getelementptr inbounds nuw %"struct.google::protobuf::internal::ParseTable", ptr %3, i32 0, i32 7
  %5 = load ptr, ptr %4, align 8, !tbaa !162
  ret ptr %5
}

; Function Attrs: inlinehint mustprogress uwtable
define linkonce_odr noundef ptr @_ZN6google8protobuf8internal15GetExtensionSetEPNS0_11MessageLiteEl(ptr noundef %0, i64 noundef %1) #9 comdat {
  %3 = alloca ptr, align 8
  %4 = alloca ptr, align 8
  %5 = alloca i64, align 8
  store ptr %0, ptr %4, align 8, !tbaa !3
  store i64 %1, ptr %5, align 8, !tbaa !35
  %6 = load i64, ptr %5, align 8, !tbaa !35
  %7 = icmp eq i64 %6, -1
  br i1 %7, label %8, label %9

8:                                                ; preds = %2
  store ptr null, ptr %3, align 8
  br label %13

9:                                                ; preds = %2
  %10 = load ptr, ptr %4, align 8, !tbaa !3
  %11 = load i64, ptr %5, align 8, !tbaa !35
  %12 = call noundef ptr @_ZN6google8protobuf8internal3RawINS1_12ExtensionSetEEEPT_PNS0_11MessageLiteEl(ptr noundef %10, i64 noundef %11)
  store ptr %12, ptr %3, align 8
  br label %13

13:                                               ; preds = %9, %8
  %14 = load ptr, ptr %3, align 8
  ret ptr %14
}

; Function Attrs: mustprogress uwtable
define internal noundef zeroext i1 @_ZN6google8protobuf8internal12_GLOBAL__N_123UnknownFieldHandlerLite14ParseExtensionEPNS0_11MessageLiteERKNS1_10ParseTableEPNS0_2io16CodedInputStreamEi(ptr noundef %0, ptr noundef nonnull align 8 dereferenceable(72) %1, ptr noundef %2, i32 noundef %3) #4 align 2 personality ptr @__gxx_personality_v0 {
  %5 = alloca i1, align 1
  %6 = alloca ptr, align 8
  %7 = alloca ptr, align 8
  %8 = alloca ptr, align 8
  %9 = alloca i32, align 4
  %10 = alloca ptr, align 8
  %11 = alloca i32, align 4
  %12 = alloca ptr, align 8
  %13 = alloca %"class.google::protobuf::internal::LogMessage", align 8
  %14 = alloca i1, align 1
  %15 = alloca i1, align 1
  %16 = alloca ptr, align 8
  %17 = alloca i32, align 4
  %18 = alloca %"class.google::protobuf::internal::LogFinisher", align 1
  %19 = alloca %"class.google::protobuf::io::StringOutputStream", align 8
  %20 = alloca %"class.google::protobuf::io::CodedOutputStream", align 8
  store ptr %0, ptr %6, align 8, !tbaa !3
  store ptr %1, ptr %7, align 8, !tbaa !8
  store ptr %2, ptr %8, align 8, !tbaa !10
  store i32 %3, ptr %9, align 4, !tbaa !27
  call void @llvm.lifetime.start.p0(i64 8, ptr %10) #3
  %21 = load ptr, ptr %6, align 8, !tbaa !3
  %22 = load ptr, ptr %7, align 8, !tbaa !8
  %23 = getelementptr inbounds nuw %"struct.google::protobuf::internal::ParseTable", ptr %22, i32 0, i32 5
  %24 = load i64, ptr %23, align 8, !tbaa !112
  %25 = call noundef ptr @_ZN6google8protobuf8internal15GetExtensionSetEPNS0_11MessageLiteEl(ptr noundef %21, i64 noundef %24)
  store ptr %25, ptr %10, align 8, !tbaa !113
  %26 = load ptr, ptr %10, align 8, !tbaa !113
  %27 = icmp eq ptr %26, null
  br i1 %27, label %28, label %29

28:                                               ; preds = %4
  store i1 false, ptr %5, align 1
  store i32 1, ptr %11, align 4
  br label %88

29:                                               ; preds = %4
  call void @llvm.lifetime.start.p0(i64 8, ptr %12) #3
  %30 = load ptr, ptr %7, align 8, !tbaa !8
  %31 = call noundef ptr @_ZNK6google8protobuf8internal10ParseTable16default_instanceEv(ptr noundef nonnull align 8 dereferenceable(72) %30)
  store ptr %31, ptr %12, align 8, !tbaa !3
  br label %32

32:                                               ; preds = %49, %29
  br i1 false, label %33, label %65

33:                                               ; preds = %32
  %34 = load ptr, ptr %7, align 8, !tbaa !8
  %35 = getelementptr inbounds nuw %"struct.google::protobuf::internal::ParseTable", ptr %34, i32 0, i32 8
  %36 = load i8, ptr %35, align 8, !tbaa !115, !range !59, !noundef !60
  %37 = trunc i8 %36 to i1
  store i1 false, ptr %14, align 1
  store i1 false, ptr %15, align 1
  call void @llvm.lifetime.start.p0(i64 1, ptr %18) #3
  br i1 %37, label %39, label %38

38:                                               ; preds = %33
  br label %43

39:                                               ; preds = %33
  call void @llvm.lifetime.start.p0(i64 56, ptr %13) #3
  store i1 true, ptr %14, align 1
  call void @_ZN6google8protobuf8internal10LogMessageC1ENS0_8LogLevelEPKci(ptr noundef nonnull align 8 dereferenceable(56) %13, i32 noundef 3, ptr noundef @.str.8, i32 noundef 87)
  store i1 true, ptr %15, align 1
  %40 = invoke noundef nonnull align 8 dereferenceable(56) ptr @_ZN6google8protobuf8internal10LogMessagelsEPKc(ptr noundef nonnull align 8 dereferenceable(56) %13, ptr noundef @.str.9)
          to label %41 unwind label %50

41:                                               ; preds = %39
  invoke void @_ZN6google8protobuf8internal11LogFinisheraSERNS1_10LogMessageE(ptr noundef nonnull align 1 dereferenceable(1) %18, ptr noundef nonnull align 8 dereferenceable(56) %40)
          to label %42 unwind label %54

42:                                               ; preds = %41
  br label %43

43:                                               ; preds = %42, %38
  call void @llvm.lifetime.end.p0(i64 1, ptr %18) #3
  %44 = load i1, ptr %15, align 1
  br i1 %44, label %45, label %46

45:                                               ; preds = %43
  call void @_ZN6google8protobuf8internal10LogMessageD1Ev(ptr noundef nonnull align 8 dereferenceable(56) %13) #3
  br label %46

46:                                               ; preds = %45, %43
  %47 = load i1, ptr %14, align 1
  br i1 %47, label %48, label %49

48:                                               ; preds = %46
  call void @llvm.lifetime.end.p0(i64 56, ptr %13) #3
  br label %49

49:                                               ; preds = %48, %46
  br label %32, !llvm.loop !116

50:                                               ; preds = %39
  %51 = landingpad { ptr, i32 }
          cleanup
  %52 = extractvalue { ptr, i32 } %51, 0
  store ptr %52, ptr %16, align 8
  %53 = extractvalue { ptr, i32 } %51, 1
  store i32 %53, ptr %17, align 4
  br label %58

54:                                               ; preds = %41
  %55 = landingpad { ptr, i32 }
          cleanup
  %56 = extractvalue { ptr, i32 } %55, 0
  store ptr %56, ptr %16, align 8
  %57 = extractvalue { ptr, i32 } %55, 1
  store i32 %57, ptr %17, align 4
  call void @llvm.lifetime.end.p0(i64 1, ptr %18) #3
  br label %58

58:                                               ; preds = %54, %50
  %59 = load i1, ptr %15, align 1
  br i1 %59, label %60, label %61

60:                                               ; preds = %58
  call void @_ZN6google8protobuf8internal10LogMessageD1Ev(ptr noundef nonnull align 8 dereferenceable(56) %13) #3
  br label %61

61:                                               ; preds = %60, %58
  %62 = load i1, ptr %14, align 1
  br i1 %62, label %63, label %64

63:                                               ; preds = %61
  call void @llvm.lifetime.end.p0(i64 56, ptr %13) #3
  br label %64

64:                                               ; preds = %63, %61
  br label %87

65:                                               ; preds = %32
  call void @llvm.lifetime.start.p0(i64 16, ptr %19) #3
  %66 = load ptr, ptr %6, align 8, !tbaa !3
  %67 = load ptr, ptr %7, align 8, !tbaa !8
  %68 = getelementptr inbounds nuw %"struct.google::protobuf::internal::ParseTable", ptr %67, i32 0, i32 6
  %69 = load i64, ptr %68, align 8, !tbaa !117
  %70 = call noundef ptr @_ZN6google8protobuf8internal12_GLOBAL__N_120MutableUnknownFieldsB5cxx11EPNS0_11MessageLiteEl(ptr noundef %66, i64 noundef %69)
  call void @_ZN6google8protobuf2io18StringOutputStreamC1EPNSt7__cxx1112basic_stringIcSt11char_traitsIcESaIcEEE(ptr noundef nonnull align 8 dereferenceable(16) %19, ptr noundef %70)
  call void @llvm.lifetime.start.p0(i64 80, ptr %20) #3
  invoke void @_ZN6google8protobuf2io17CodedOutputStreamC1EPNS1_20ZeroCopyOutputStreamEb(ptr noundef nonnull align 8 dereferenceable(80) %20, ptr noundef %19, i1 noundef zeroext false)
          to label %71 unwind label %78

71:                                               ; preds = %65
  %72 = load ptr, ptr %10, align 8, !tbaa !113
  %73 = load i32, ptr %9, align 4, !tbaa !27
  %74 = load ptr, ptr %8, align 8, !tbaa !10
  %75 = load ptr, ptr %12, align 8, !tbaa !3
  %76 = invoke noundef zeroext i1 @_ZN6google8protobuf8internal12ExtensionSet10ParseFieldEjPNS0_2io16CodedInputStreamEPKNS0_11MessageLiteEPNS3_17CodedOutputStreamE(ptr noundef nonnull align 8 dereferenceable(24) %72, i32 noundef %73, ptr noundef %74, ptr noundef %75, ptr noundef %20)
          to label %77 unwind label %82

77:                                               ; preds = %71
  store i1 %76, ptr %5, align 1
  store i32 1, ptr %11, align 4
  call void @_ZN6google8protobuf2io17CodedOutputStreamD1Ev(ptr noundef nonnull align 8 dereferenceable(80) %20) #3
  call void @llvm.lifetime.end.p0(i64 80, ptr %20) #3
  call void @_ZN6google8protobuf2io20ZeroCopyOutputStreamD2Ev(ptr noundef nonnull align 8 dereferenceable(16) %19) #3
  call void @llvm.lifetime.end.p0(i64 16, ptr %19) #3
  call void @llvm.lifetime.end.p0(i64 8, ptr %12) #3
  br label %88

78:                                               ; preds = %65
  %79 = landingpad { ptr, i32 }
          cleanup
  %80 = extractvalue { ptr, i32 } %79, 0
  store ptr %80, ptr %16, align 8
  %81 = extractvalue { ptr, i32 } %79, 1
  store i32 %81, ptr %17, align 4
  br label %86

82:                                               ; preds = %71
  %83 = landingpad { ptr, i32 }
          cleanup
  %84 = extractvalue { ptr, i32 } %83, 0
  store ptr %84, ptr %16, align 8
  %85 = extractvalue { ptr, i32 } %83, 1
  store i32 %85, ptr %17, align 4
  call void @_ZN6google8protobuf2io17CodedOutputStreamD1Ev(ptr noundef nonnull align 8 dereferenceable(80) %20) #3
  br label %86

86:                                               ; preds = %82, %78
  call void @llvm.lifetime.end.p0(i64 80, ptr %20) #3
  call void @_ZN6google8protobuf2io20ZeroCopyOutputStreamD2Ev(ptr noundef nonnull align 8 dereferenceable(16) %19) #3
  call void @llvm.lifetime.end.p0(i64 16, ptr %19) #3
  br label %87

87:                                               ; preds = %86, %64
  call void @llvm.lifetime.end.p0(i64 8, ptr %12) #3
  call void @llvm.lifetime.end.p0(i64 8, ptr %10) #3
  br label %90

88:                                               ; preds = %77, %28
  call void @llvm.lifetime.end.p0(i64 8, ptr %10) #3
  %89 = load i1, ptr %5, align 1
  ret i1 %89

90:                                               ; preds = %87
  %91 = load ptr, ptr %16, align 8
  %92 = load i32, ptr %17, align 4
  %93 = insertvalue { ptr, i32 } poison, ptr %91, 0
  %94 = insertvalue { ptr, i32 } %93, i32 %92, 1
  resume { ptr, i32 } %94
}