; Function Attrs: mustprogress uwtable
define internal fastcc noundef zeroext i1 @_ZN6google8protobuf8internal12_GLOBAL__N_123UnknownFieldHandlerLite14ParseExtensionEPNS0_11MessageLiteERKNS1_10ParseTableEPNS0_2io16CodedInputStreamEi(ptr noundef %0, ptr noundef nonnull readonly align 8 captures(none) dereferenceable(72) %1, ptr noundef %2, i32 noundef %3) unnamed_addr #3 align 2 personality ptr @__gxx_personality_v0 {
  %5 = alloca %"class.google::protobuf::io::StringOutputStream", align 8
  %6 = alloca %"class.google::protobuf::io::CodedOutputStream", align 8
  %7 = getelementptr inbounds nuw i8, ptr %1, i64 40
  %8 = load i64, ptr %7, align 8, !tbaa !145
  %9 = icmp eq i64 %8, -1
  %10 = getelementptr inbounds i8, ptr %0, i64 %8
  %11 = icmp eq ptr %0, null
  %12 = or i1 %11, %9
  br i1 %12, label %32, label %13

13:                                               ; preds = %4
  %14 = getelementptr inbounds nuw i8, ptr %1, i64 56
  %15 = load ptr, ptr %14, align 8, !tbaa !146
  call void @llvm.lifetime.start.p0(i64 16, ptr nonnull %5) #13
  %16 = getelementptr inbounds nuw i8, ptr %1, i64 48
  %17 = load i64, ptr %16, align 8, !tbaa !26
  %18 = getelementptr inbounds i8, ptr %0, i64 %17
  %19 = load ptr, ptr %18, align 8, !tbaa !41
  %20 = ptrtoint ptr %19 to i64
  %21 = and i64 %20, 1
  %.not.i = icmp eq i64 %21, 0
  br i1 %.not.i, label %26, label %22, !prof !23

22:                                               ; preds = %13
  %23 = and i64 %20, -2
  %24 = inttoptr i64 %23 to ptr
  %25 = getelementptr inbounds nuw i8, ptr %24, i64 8
  br label %_ZN6google8protobuf8internal12_GLOBAL__N_120MutableUnknownFieldsB5cxx11EPNS0_11MessageLiteEl.exit

26:                                               ; preds = %13
  %27 = tail call noundef ptr @_ZN6google8protobuf8internal16InternalMetadata27mutable_unknown_fields_slowINSt7__cxx1112basic_stringIcSt11char_traitsIcESaIcEEEEEPT_v(ptr noundef nonnull align 8 dereferenceable(8) %18)
  br label %_ZN6google8protobuf8internal12_GLOBAL__N_120MutableUnknownFieldsB5cxx11EPNS0_11MessageLiteEl.exit

_ZN6google8protobuf8internal12_GLOBAL__N_120MutableUnknownFieldsB5cxx11EPNS0_11MessageLiteEl.exit: ; preds = %22, %26
  %.0.i.i = phi ptr [ %25, %22 ], [ %27, %26 ]
  call void @_ZN6google8protobuf2io18StringOutputStreamC1EPNSt7__cxx1112basic_stringIcSt11char_traitsIcESaIcEEE(ptr noundef nonnull align 8 dereferenceable(16) %5, ptr noundef %.0.i.i)
  call void @llvm.lifetime.start.p0(i64 80, ptr nonnull %6) #13
  call void @_ZN6google8protobuf2io17CodedOutputStreamC1EPNS1_20ZeroCopyOutputStreamEb(ptr noundef nonnull align 8 dereferenceable(80) %6, ptr noundef nonnull %5, i1 noundef zeroext false)
  %28 = invoke noundef zeroext i1 @_ZN6google8protobuf8internal12ExtensionSet10ParseFieldEjPNS0_2io16CodedInputStreamEPKNS0_11MessageLiteEPNS3_17CodedOutputStreamE(ptr noundef nonnull align 8 dereferenceable(24) %10, i32 noundef %3, ptr noundef %2, ptr noundef %15, ptr noundef nonnull %6)
          to label %29 unwind label %30

29:                                               ; preds = %_ZN6google8protobuf8internal12_GLOBAL__N_120MutableUnknownFieldsB5cxx11EPNS0_11MessageLiteEl.exit
  call void @_ZN6google8protobuf2io17CodedOutputStreamD1Ev(ptr noundef nonnull align 8 dereferenceable(80) %6) #13
  call void @llvm.lifetime.end.p0(i64 80, ptr nonnull %6) #13
  call void @llvm.lifetime.end.p0(i64 16, ptr nonnull %5) #13
  br label %32

30:                                               ; preds = %_ZN6google8protobuf8internal12_GLOBAL__N_120MutableUnknownFieldsB5cxx11EPNS0_11MessageLiteEl.exit
  %31 = landingpad { ptr, i32 }
          cleanup
  call void @_ZN6google8protobuf2io17CodedOutputStreamD1Ev(ptr noundef nonnull align 8 dereferenceable(80) %6) #13
  call void @llvm.lifetime.end.p0(i64 80, ptr nonnull %6) #13
  call void @llvm.lifetime.end.p0(i64 16, ptr nonnull %5) #13
  resume { ptr, i32 } %31

32:                                               ; preds = %4, %29
  %.013 = phi i1 [ %28, %29 ], [ false, %4 ]
  ret i1 %.013
}